target datalayout = "e-m:e-p270:32:32-p271:32:32-p272:64:64-i64:64-i128:128-f80:128-n8:16:32:64-S128"
target triple = "x86_64-pc-linux-gnu"

%"class.boost::asio::detail::tss_ptr" = type { i8 }
%"class.boost::system::error_code" = type { i32, i8, ptr }
%"class.boost::asio::detail::thread_info_base" = type { [3 x ptr], i32, %"class.std::__exception_ptr::exception_ptr" }
%"class.std::__exception_ptr::exception_ptr" = type { ptr }
%"class.boost::asio::detail::call_stack<boost::asio::detail::thread_context, boost::asio::detail::thread_info_base>::context" = type { ptr, ptr, ptr }
%"class.std::allocator.57" = type { i8 }
%"struct.boost::asio::detail::executor_function::impl_base" = type { ptr }
%"class.boost::asio::detail::recycling_allocator.62" = type { i8 }
%class.anon.123 = type { ptr, ptr, ptr }
%"class.boost::asio::detail::binder1.128" = type { %class.anon.123, %"class.boost::system::error_code" }
%"struct.boost::asio::detail::executor_function::impl<boost::asio::detail::binder1<(lambda at /home/dtcxzyw/WorkSpace/Projects/compilers/llvm-opt-benchmark/bench/msgpack/msgpack-c/example/boost/asio_send_recv.cpp:35:13), boost::system::error_code>, std::allocator<void>>::ptr" = type { ptr, ptr, ptr }
%"class.boost::asio::detail::recycling_allocator.161" = type { i8 }
%"struct.boost::asio::detail::executor_function::impl.159" = type <{ %"struct.boost::asio::detail::executor_function::impl_base", %"class.boost::asio::detail::binder1.128", [8 x i8] }>

@_ZN5boost4asio6detail10call_stackINS1_14thread_contextENS1_16thread_info_baseEE4top_E = linkonce_odr dso_local global %"class.boost::asio::detail::tss_ptr" zeroinitializer, comdat, align 1
@_ZN5boost4asio6detail15keyword_tss_ptrINS1_10call_stackINS1_14thread_contextENS1_16thread_info_baseEE7contextEE6value_E = linkonce_odr dso_local thread_local global ptr null, comdat, align 8

; Function Attrs: mustprogress nounwind uwtable
define linkonce_odr dso_local noundef ptr @_ZNK5boost4asio6detail15keyword_tss_ptrINS1_10call_stackINS1_14thread_contextENS1_16thread_info_baseEE7contextEEcvPS7_Ev(ptr noundef nonnull align 1 dereferenceable(1) %0) #5 comdat align 2 {
  %2 = alloca ptr, align 8
  store ptr %0, ptr %2, align 8, !tbaa !367
  %3 = call align 8 ptr @llvm.threadlocal.address.p0(ptr align 8 @_ZN5boost4asio6detail15keyword_tss_ptrINS1_10call_stackINS1_14thread_contextENS1_16thread_info_baseEE7contextEE6value_E)
  %4 = load ptr, ptr %3, align 8, !tbaa !319
  ret ptr %4
}

; Function Attrs: mustprogress nounwind uwtable
define linkonce_odr dso_local void @_ZN5boost4asio6detail16thread_info_base10deallocateINS2_21executor_function_tagEEEvT_PS2_Pvm(ptr noundef %0, ptr noundef %1, i64 noundef %2) #5 comdat align 2 {
  %4 = alloca ptr, align 8
  %5 = alloca ptr, align 8
  %6 = alloca i64, align 8
  %7 = alloca ptr, align 8
  store ptr %0, ptr %4, align 8, !tbaa !323
  store ptr %1, ptr %5, align 8, !tbaa !61
  store i64 %2, ptr %6, align 8, !tbaa !42
  %8 = load i64, ptr %6, align 8, !tbaa !42
  %9 = icmp ule i64 %8, 1020
  br i1 %9, label %10, label %32

10:                                               ; preds = %3
  %11 = load ptr, ptr %4, align 8, !tbaa !323
  %12 = icmp ne ptr %11, null
  br i1 %12, label %13, label %31

13:                                               ; preds = %10
  %14 = load ptr, ptr %4, align 8, !tbaa !323
  %15 = getelementptr inbounds nuw %"class.boost::asio::detail::thread_info_base", ptr %14, i32 0, i32 0
  %16 = getelementptr inbounds nuw [3 x ptr], ptr %15, i64 0, i64 2
  %17 = load ptr, ptr %16, align 8, !tbaa !61
  %18 = icmp eq ptr %17, null
  br i1 %18, label %19, label %31

19:                                               ; preds = %13
  call void @llvm.lifetime.start.p0(i64 8, ptr %7) #3
  %20 = load ptr, ptr %5, align 8, !tbaa !61
  store ptr %20, ptr %7, align 8, !tbaa !26
  %21 = load ptr, ptr %7, align 8, !tbaa !26
  %22 = load i64, ptr %6, align 8, !tbaa !42
  %23 = getelementptr inbounds nuw i8, ptr %21, i64 %22
  %24 = load i8, ptr %23, align 1, !tbaa !111
  %25 = load ptr, ptr %7, align 8, !tbaa !26
  %26 = getelementptr inbounds i8, ptr %25, i64 0
  store i8 %24, ptr %26, align 1, !tbaa !111
  %27 = load ptr, ptr %5, align 8, !tbaa !61
  %28 = load ptr, ptr %4, align 8, !tbaa !323
  %29 = getelementptr inbounds nuw %"class.boost::asio::detail::thread_info_base", ptr %28, i32 0, i32 0
  %30 = getelementptr inbounds nuw [3 x ptr], ptr %29, i64 0, i64 2
  store ptr %27, ptr %30, align 8, !tbaa !61
  call void @llvm.lifetime.end.p0(i64 8, ptr %7) #3
  br label %34

31:                                               ; preds = %13, %10
  br label %32

32:                                               ; preds = %31, %3
  %33 = load ptr, ptr %5, align 8, !tbaa !61
  call void @_ZdlPv(ptr noundef %33) #3
  br label %34

34:                                               ; preds = %32, %19
  ret void
}

; Function Attrs: mustprogress nounwind uwtable
define linkonce_odr dso_local noundef ptr @_ZN5boost4asio6detail10call_stackINS1_14thread_contextENS1_16thread_info_baseEE3topEv() #5 comdat align 2 {
  %1 = alloca ptr, align 8
  call void @llvm.lifetime.start.p0(i64 8, ptr %1) #3
  %2 = call noundef ptr @_ZNK5boost4asio6detail15keyword_tss_ptrINS1_10call_stackINS1_14thread_contextENS1_16thread_info_baseEE7contextEEcvPS7_Ev(ptr noundef nonnull align 1 dereferenceable(1) @_ZN5boost4asio6detail10call_stackINS1_14thread_contextENS1_16thread_info_baseEE4top_E)
  store ptr %2, ptr %1, align 8, !tbaa !319
  %3 = load ptr, ptr %1, align 8, !tbaa !319
  %4 = icmp ne ptr %3, null
  br i1 %4, label %5, label %9

5:                                                ; preds = %0
  %6 = load ptr, ptr %1, align 8, !tbaa !319
  %7 = getelementptr inbounds nuw %"class.boost::asio::detail::call_stack<boost::asio::detail::thread_context, boost::asio::detail::thread_info_base>::context", ptr %6, i32 0, i32 1
  %8 = load ptr, ptr %7, align 8, !tbaa !327
  br label %10

9:                                                ; preds = %0
  br label %10

10:                                               ; preds = %9, %5
  %11 = phi ptr [ %8, %5 ], [ null, %9 ]
  call void @llvm.lifetime.end.p0(i64 8, ptr %1) #3
  ret ptr %11
}

; Function Attrs: mustprogress nounwind uwtable
define linkonce_odr dso_local void @_ZN5boost4asio6detail19recycling_allocatorIvNS1_16thread_info_base21executor_function_tagEEC2Ev(ptr noundef nonnull align 1 dereferenceable(1) %0) unnamed_addr #5 comdat align 2 {
  %2 = alloca ptr, align 8
  store ptr %0, ptr %2, align 8, !tbaa !755
  ret void
}

; Function Attrs: mustprogress nounwind uwtable
define internal void @"_ZN5boost4asio6detail19recycling_allocatorINS1_17executor_function4implINS1_7binder1IZZ4mainENK3$_0clEvEUlRKNS_6system10error_codeEE_S8_EESaIvEEENS1_16thread_info_base21executor_function_tagEE10deallocateEPSE_m"(ptr noundef nonnull align 1 dereferenceable(1) %0, ptr noundef %1, i64 noundef %2) #5 align 2 {
  %4 = alloca ptr, align 8
  %5 = alloca ptr, align 8
  %6 = alloca i64, align 8
  store ptr %0, ptr %4, align 8, !tbaa !1308
  store ptr %1, ptr %5, align 8, !tbaa !1305
  store i64 %2, ptr %6, align 8, !tbaa !42
  %7 = call noundef ptr @_ZN5boost4asio6detail10call_stackINS1_14thread_contextENS1_16thread_info_baseEE3topEv()
  %8 = load ptr, ptr %5, align 8, !tbaa !1305
  %9 = load i64, ptr %6, align 8, !tbaa !42
  %10 = mul i64 56, %9
  call void @_ZN5boost4asio6detail16thread_info_base10deallocateINS2_21executor_function_tagEEEvT_PS2_Pvm(ptr noundef %7, ptr noundef %8, i64 noundef %10)
  ret void
}

; Function Attrs: mustprogress nounwind uwtable
define internal void @"_ZN5boost4asio6detail19recycling_allocatorINS1_17executor_function4implINS1_7binder1IZZ4mainENK3$_0clEvEUlRKNS_6system10error_codeEE_S8_EESaIvEEENS1_16thread_info_base21executor_function_tagEEC2IvEERKNS2_IT_SG_EE"(ptr noundef nonnull align 1 dereferenceable(1) %0, ptr noundef nonnull align 1 dereferenceable(1) %1) unnamed_addr #5 align 2 {
  %3 = alloca ptr, align 8
  %4 = alloca ptr, align 8
  store ptr %0, ptr %3, align 8, !tbaa !1308
  store ptr %1, ptr %4, align 8, !tbaa !755
  ret void
}

; Function Attrs: mustprogress uwtable
define linkonce_odr dso_local void @_ZN5boost4asio6detail23get_recycling_allocatorISaIvENS1_16thread_info_base21executor_function_tagEE3getERKS3_(ptr noundef nonnull align 1 dereferenceable(1) %0) #9 comdat align 2 {
  %2 = alloca %"class.boost::asio::detail::recycling_allocator.62", align 1
  %3 = alloca ptr, align 8
  store ptr %0, ptr %3, align 8, !tbaa !682
  call void @_ZN5boost4asio6detail19recycling_allocatorIvNS1_16thread_info_base21executor_function_tagEEC2Ev(ptr noundef nonnull align 1 dereferenceable(1) %2)
  ret void
}

; Function Attrs: mustprogress uwtable
define internal void @"_ZN5boost4asio6detail17executor_function4implINS1_7binder1IZZ4mainENK3$_0clEvEUlRKNS_6system10error_codeEE_S7_EESaIvEE3ptr5resetEv"(ptr noundef nonnull align 8 dereferenceable(24) %0) #9 align 2 {
  %2 = alloca ptr, align 8
  %3 = alloca %"class.boost::asio::detail::recycling_allocator.161", align 1
  %4 = alloca %"class.boost::asio::detail::recycling_allocator.62", align 1
  store ptr %0, ptr %2, align 8, !tbaa !1306
  %5 = load ptr, ptr %2, align 8
  %6 = getelementptr inbounds nuw %"struct.boost::asio::detail::executor_function::impl<boost::asio::detail::binder1<(lambda at /home/dtcxzyw/WorkSpace/Projects/compilers/llvm-opt-benchmark/bench/msgpack/msgpack-c/example/boost/asio_send_recv.cpp:35:13), boost::system::error_code>, std::allocator<void>>::ptr", ptr %5, i32 0, i32 2
  %7 = load ptr, ptr %6, align 8, !tbaa !1304
  %8 = icmp ne ptr %7, null
  br i1 %8, label %9, label %11

9:                                                ; preds = %1
  %10 = getelementptr inbounds nuw %"struct.boost::asio::detail::executor_function::impl<boost::asio::detail::binder1<(lambda at /home/dtcxzyw/WorkSpace/Projects/compilers/llvm-opt-benchmark/bench/msgpack/msgpack-c/example/boost/asio_send_recv.cpp:35:13), boost::system::error_code>, std::allocator<void>>::ptr", ptr %5, i32 0, i32 2
  store ptr null, ptr %10, align 8, !tbaa !1304
  br label %11

11:                                               ; preds = %9, %1
  %12 = getelementptr inbounds nuw %"struct.boost::asio::detail::executor_function::impl<boost::asio::detail::binder1<(lambda at /home/dtcxzyw/WorkSpace/Projects/compilers/llvm-opt-benchmark/bench/msgpack/msgpack-c/example/boost/asio_send_recv.cpp:35:13), boost::system::error_code>, std::allocator<void>>::ptr", ptr %5, i32 0, i32 1
  %13 = load ptr, ptr %12, align 8, !tbaa !1303
  %14 = icmp ne ptr %13, null
  br i1 %14, label %15, label %21

15:                                               ; preds = %11
  call void @llvm.lifetime.start.p0(i64 1, ptr %3) #3
  call void @llvm.lifetime.start.p0(i64 1, ptr %4) #3
  %16 = getelementptr inbounds nuw %"struct.boost::asio::detail::executor_function::impl<boost::asio::detail::binder1<(lambda at /home/dtcxzyw/WorkSpace/Projects/compilers/llvm-opt-benchmark/bench/msgpack/msgpack-c/example/boost/asio_send_recv.cpp:35:13), boost::system::error_code>, std::allocator<void>>::ptr", ptr %5, i32 0, i32 0
  %17 = load ptr, ptr %16, align 8, !tbaa !1300
  call void @_ZN5boost4asio6detail23get_recycling_allocatorISaIvENS1_16thread_info_base21executor_function_tagEE3getERKS3_(ptr noundef nonnull align 1 dereferenceable(1) %17)
  call void @"_ZN5boost4asio6detail19recycling_allocatorINS1_17executor_function4implINS1_7binder1IZZ4mainENK3$_0clEvEUlRKNS_6system10error_codeEE_S8_EESaIvEEENS1_16thread_info_base21executor_function_tagEEC2IvEERKNS2_IT_SG_EE"(ptr noundef nonnull align 1 dereferenceable(1) %3, ptr noundef nonnull align 1 dereferenceable(1) %4)
  call void @llvm.lifetime.end.p0(i64 1, ptr %4) #3
  %18 = getelementptr inbounds nuw %"struct.boost::asio::detail::executor_function::impl<boost::asio::detail::binder1<(lambda at /home/dtcxzyw/WorkSpace/Projects/compilers/llvm-opt-benchmark/bench/msgpack/msgpack-c/example/boost/asio_send_recv.cpp:35:13), boost::system::error_code>, std::allocator<void>>::ptr", ptr %5, i32 0, i32 1
  %19 = load ptr, ptr %18, align 8, !tbaa !1303
  call void @"_ZN5boost4asio6detail19recycling_allocatorINS1_17executor_function4implINS1_7binder1IZZ4mainENK3$_0clEvEUlRKNS_6system10error_codeEE_S8_EESaIvEEENS1_16thread_info_base21executor_function_tagEE10deallocateEPSE_m"(ptr noundef nonnull align 1 dereferenceable(1) %3, ptr noundef %19, i64 noundef 1)
  %20 = getelementptr inbounds nuw %"struct.boost::asio::detail::executor_function::impl<boost::asio::detail::binder1<(lambda at /home/dtcxzyw/WorkSpace/Projects/compilers/llvm-opt-benchmark/bench/msgpack/msgpack-c/example/boost/asio_send_recv.cpp:35:13), boost::system::error_code>, std::allocator<void>>::ptr", ptr %5, i32 0, i32 1
  store ptr null, ptr %20, align 8, !tbaa !1303
  call void @llvm.lifetime.end.p0(i64 1, ptr %3) #3
  br label %21

21:                                               ; preds = %15, %11
  ret void
}

; Function Attrs: mustprogress nounwind uwtable
define internal void @"_ZN5boost4asio6detail7binder1IZZ4mainENK3$_0clEvEUlRKNS_6system10error_codeEE_S5_EC2EOS9_"(ptr noundef nonnull align 8 dereferenceable(40) %0, ptr noundef nonnull align 8 dereferenceable(40) %1) unnamed_addr #5 align 2 {
  %3 = alloca ptr, align 8
  %4 = alloca ptr, align 8
  store ptr %0, ptr %3, align 8, !tbaa !1073
  store ptr %1, ptr %4, align 8, !tbaa !1073
  %5 = load ptr, ptr %3, align 8
  %6 = getelementptr inbounds nuw %"class.boost::asio::detail::binder1.128", ptr %5, i32 0, i32 0
  %7 = load ptr, ptr %4, align 8, !tbaa !1073
  %8 = getelementptr inbounds nuw %"class.boost::asio::detail::binder1.128", ptr %7, i32 0, i32 0
  call void @llvm.memcpy.p0.p0.i64(ptr align 8 %6, ptr align 8 %8, i64 24, i1 false), !tbaa.struct !1052
  %9 = getelementptr inbounds nuw %"class.boost::asio::detail::binder1.128", ptr %5, i32 0, i32 1
  %10 = load ptr, ptr %4, align 8, !tbaa !1073
  %11 = getelementptr inbounds nuw %"class.boost::asio::detail::binder1.128", ptr %10, i32 0, i32 1
  call void @llvm.memcpy.p0.p0.i64(ptr align 8 %9, ptr align 8 %11, i64 16, i1 false), !tbaa.struct !196
  ret void
}

; Function Attrs: mustprogress uwtable
define internal void @"_ZN5boost4asio6detail17executor_function8completeINS1_7binder1IZZ4mainENK3$_0clEvEUlRKNS_6system10error_codeEE_S7_EESaIvEEEvPNS2_9impl_baseEb"(ptr noundef %0, i1 noundef zeroext %1) #9 align 2 personality ptr @__gxx_personality_v0 {
  %3 = alloca ptr, align 8
  %4 = alloca i8, align 1
  %5 = alloca ptr, align 8
  %6 = alloca %"class.std::allocator.57", align 1
  %7 = alloca %"struct.boost::asio::detail::executor_function::impl<boost::asio::detail::binder1<(lambda at /home/dtcxzyw/WorkSpace/Projects/compilers/llvm-opt-benchmark/bench/msgpack/msgpack-c/example/boost/asio_send_recv.cpp:35:13), boost::system::error_code>, std::allocator<void>>::ptr", align 8
  %8 = alloca %"class.boost::asio::detail::binder1.128", align 8
  %9 = alloca ptr, align 8
  %10 = alloca i32, align 4
  store ptr %0, ptr %3, align 8, !tbaa !757
  %11 = zext i1 %1 to i8
  store i8 %11, ptr %4, align 1, !tbaa !60
  call void @llvm.lifetime.start.p0(i64 8, ptr %5) #3
  %12 = load ptr, ptr %3, align 8, !tbaa !757
  store ptr %12, ptr %5, align 8, !tbaa !1305
  call void @llvm.lifetime.start.p0(i64 1, ptr %6) #3
  call void @llvm.lifetime.start.p0(i64 24, ptr %7) #3
  %13 = getelementptr inbounds nuw %"struct.boost::asio::detail::executor_function::impl<boost::asio::detail::binder1<(lambda at /home/dtcxzyw/WorkSpace/Projects/compilers/llvm-opt-benchmark/bench/msgpack/msgpack-c/example/boost/asio_send_recv.cpp:35:13), boost::system::error_code>, std::allocator<void>>::ptr", ptr %7, i32 0, i32 0
  store ptr %6, ptr %13, align 8, !tbaa !1300
  %14 = getelementptr inbounds nuw %"struct.boost::asio::detail::executor_function::impl<boost::asio::detail::binder1<(lambda at /home/dtcxzyw/WorkSpace/Projects/compilers/llvm-opt-benchmark/bench/msgpack/msgpack-c/example/boost/asio_send_recv.cpp:35:13), boost::system::error_code>, std::allocator<void>>::ptr", ptr %7, i32 0, i32 1
  %15 = load ptr, ptr %5, align 8, !tbaa !1305
  store ptr %15, ptr %14, align 8, !tbaa !1303
  %16 = getelementptr inbounds nuw %"struct.boost::asio::detail::executor_function::impl<boost::asio::detail::binder1<(lambda at /home/dtcxzyw/WorkSpace/Projects/compilers/llvm-opt-benchmark/bench/msgpack/msgpack-c/example/boost/asio_send_recv.cpp:35:13), boost::system::error_code>, std::allocator<void>>::ptr", ptr %7, i32 0, i32 2
  %17 = load ptr, ptr %5, align 8, !tbaa !1305
  store ptr %17, ptr %16, align 8, !tbaa !1304
  call void @llvm.lifetime.start.p0(i64 40, ptr %8) #3
  %18 = load ptr, ptr %5, align 8, !tbaa !1305
  %19 = getelementptr inbounds nuw %"struct.boost::asio::detail::executor_function::impl.159", ptr %18, i32 0, i32 1
  invoke void @"_ZN5boost4asio6detail7binder1IZZ4mainENK3$_0clEvEUlRKNS_6system10error_codeEE_S5_EC2EOS9_"(ptr noundef nonnull align 8 dereferenceable(40) %8, ptr noundef nonnull align 8 dereferenceable(40) %19)
          to label %20 unwind label %26

20:                                               ; preds = %2
  invoke void @"_ZN5boost4asio6detail17executor_function4implINS1_7binder1IZZ4mainENK3$_0clEvEUlRKNS_6system10error_codeEE_S7_EESaIvEE3ptr5resetEv"(ptr noundef nonnull align 8 dereferenceable(24) %7)
          to label %21 unwind label %26

21:                                               ; preds = %20
  %22 = load i8, ptr %4, align 1, !tbaa !60, !range !62, !noundef !63
  %23 = trunc i8 %22 to i1
  br i1 %23, label %24, label %30

24:                                               ; preds = %21
  invoke void @"_ZN5boost4asio6detail7binder1IZZ4mainENK3$_0clEvEUlRKNS_6system10error_codeEE_S5_EclEv"(ptr noundef nonnull align 8 dereferenceable(40) %8)
          to label %25 unwind label %26

25:                                               ; preds = %24
  br label %30

26:                                               ; preds = %24, %20, %2
  %27 = landingpad { ptr, i32 }
          cleanup
  %28 = extractvalue { ptr, i32 } %27, 0
  store ptr %28, ptr %9, align 8
  %29 = extractvalue { ptr, i32 } %27, 1
  store i32 %29, ptr %10, align 4
  call void @llvm.lifetime.end.p0(i64 40, ptr %8) #3
  call void @"_ZN5boost4asio6detail17executor_function4implINS1_7binder1IZZ4mainENK3$_0clEvEUlRKNS_6system10error_codeEE_S7_EESaIvEE3ptrD2Ev"(ptr noundef nonnull align 8 dereferenceable(24) %7) #3
  call void @llvm.lifetime.end.p0(i64 24, ptr %7) #3
  call void @llvm.lifetime.end.p0(i64 1, ptr %6) #3
  call void @llvm.lifetime.end.p0(i64 8, ptr %5) #3
  br label %31

30:                                               ; preds = %25, %21
  call void @llvm.lifetime.end.p0(i64 40, ptr %8) #3
  call void @"_ZN5boost4asio6detail17executor_function4implINS1_7binder1IZZ4mainENK3$_0clEvEUlRKNS_6system10error_codeEE_S7_EESaIvEE3ptrD2Ev"(ptr noundef nonnull align 8 dereferenceable(24) %7) #3
  call void @llvm.lifetime.end.p0(i64 24, ptr %7) #3
  call void @llvm.lifetime.end.p0(i64 1, ptr %6) #3
  call void @llvm.lifetime.end.p0(i64 8, ptr %5) #3
  ret void

31:                                               ; preds = %26
  %32 = load ptr, ptr %9, align 8
  %33 = load i32, ptr %10, align 4
  %34 = insertvalue { ptr, i32 } poison, ptr %32, 0
  %35 = insertvalue { ptr, i32 } %34, i32 %33, 1
  resume { ptr, i32 } %35
}